target datalayout = "e-m:e-p270:32:32-p271:32:32-p272:64:64-i64:64-i128:128-f80:128-n8:16:32:64-S128"
target triple = "x86_64-pc-linux-gnu"

@.str = private unnamed_addr constant [33 x i8] c"had unsupported trailing garbage\00", align 1
@.str.1 = private unnamed_addr constant [11 x i8] c"is unknown\00", align 1
@.str.2 = private unnamed_addr constant [13 x i8] c"is ambiguous\00", align 1
@.str.3 = private unnamed_addr constant [19 x i8] c"requires parameter\00", align 1
@.str.4 = private unnamed_addr constant [19 x i8] c"is badly used here\00", align 1
@.str.5 = private unnamed_addr constant [38 x i8] c"expected a proper numerical parameter\00", align 1
@.str.6 = private unnamed_addr constant [40 x i8] c"expected a positive numerical parameter\00", align 1
@.str.7 = private unnamed_addr constant [52 x i8] c"the installed libcurl version does not support this\00", align 1
@.str.8 = private unnamed_addr constant [47 x i8] c"a specified protocol is unsupported by libcurl\00", align 1
@.str.9 = private unnamed_addr constant [14 x i8] c"out of memory\00", align 1
@.str.10 = private unnamed_addr constant [56 x i8] c"the given option cannot be reversed with a --no- prefix\00", align 1
@.str.11 = private unnamed_addr constant [17 x i8] c"too large number\00", align 1
@.str.12 = private unnamed_addr constant [46 x i8] c"used '--no-' for option that is not a boolean\00", align 1
@.str.13 = private unnamed_addr constant [58 x i8] c"--continue-at and --remote-header-name cannot be combined\00", align 1
@.str.14 = private unnamed_addr constant [38 x i8] c"error encountered when reading a file\00", align 1
@.str.15 = private unnamed_addr constant [27 x i8] c"variable expansion failure\00", align 1
@.str.16 = private unnamed_addr constant [41 x i8] c"blank argument where content is expected\00", align 1
@.str.17 = private unnamed_addr constant [36 x i8] c"syntax error in --variable argument\00", align 1
@.str.18 = private unnamed_addr constant [14 x i8] c"unknown error\00", align 1

; Function Attrs: nounwind uwtable
define dso_local ptr @param2text(i32 noundef %0) #0 {
  %2 = alloca ptr, align 8
  %3 = alloca i32, align 4
  store i32 %0, ptr %3, align 4, !tbaa !4
  %4 = load i32, ptr %3, align 4, !tbaa !4
  switch i32 %4, label %23 [
    i32 10, label %5
    i32 2, label %6
    i32 1, label %7
    i32 3, label %8
    i32 4, label %9
    i32 11, label %10
    i32 12, label %11
    i32 13, label %12
    i32 14, label %13
    i32 15, label %14
    i32 17, label %15
    i32 18, label %16
    i32 19, label %17
    i32 20, label %18
    i32 21, label %19
    i32 22, label %20
    i32 23, label %21
    i32 24, label %22
  ]

5:                                                ; preds = %1
  store ptr @.str, ptr %2, align 8
  br label %24

6:                                                ; preds = %1
  store ptr @.str.1, ptr %2, align 8
  br label %24

7:                                                ; preds = %1
  store ptr @.str.2, ptr %2, align 8
  br label %24

8:                                                ; preds = %1
  store ptr @.str.3, ptr %2, align 8
  br label %24

9:                                                ; preds = %1
  store ptr @.str.4, ptr %2, align 8
  br label %24

10:                                               ; preds = %1
  store ptr @.str.5, ptr %2, align 8
  br label %24

11:                                               ; preds = %1
  store ptr @.str.6, ptr %2, align 8
  br label %24

12:                                               ; preds = %1
  store ptr @.str.7, ptr %2, align 8
  br label %24

13:                                               ; preds = %1
  store ptr @.str.8, ptr %2, align 8
  br label %24

14:                                               ; preds = %1
  store ptr @.str.9, ptr %2, align 8
  br label %24

15:                                               ; preds = %1
  store ptr @.str.10, ptr %2, align 8
  br label %24

16:                                               ; preds = %1
  store ptr @.str.11, ptr %2, align 8
  br label %24

17:                                               ; preds = %1
  store ptr @.str.12, ptr %2, align 8
  br label %24

18:                                               ; preds = %1
  store ptr @.str.13, ptr %2, align 8
  br label %24

19:                                               ; preds = %1
  store ptr @.str.14, ptr %2, align 8
  br label %24

20:                                               ; preds = %1
  store ptr @.str.15, ptr %2, align 8
  br label %24

21:                                               ; preds = %1
  store ptr @.str.16, ptr %2, align 8
  br label %24

22:                                               ; preds = %1
  store ptr @.str.17, ptr %2, align 8
  br label %24

23:                                               ; preds = %1
  store ptr @.str.18, ptr %2, align 8
  br label %24

24:                                               ; preds = %23, %22, %21, %20, %19, %18, %17, %16, %15, %14, %13, %12, %11, %10, %9, %8, %7, %6, %5
  %25 = load ptr, ptr %2, align 8
  ret ptr %25
}